target datalayout = "e-m:e-p270:32:32-p271:32:32-p272:64:64-i64:64-i128:128-f80:128-n8:16:32:64-S128"
target triple = "x86_64-pc-linux-gnu"

%struct.LodePNGCompressSettings = type { i32, i32, i32, i32, i32, i32, ptr, ptr, ptr }
%struct.LodePNGEncoderSettings = type { %struct.LodePNGCompressSettings, i32, i32, i32, ptr, i32, i32, i32 }

; Function Attrs: mustprogress nounwind uwtable
define void @_Z30lodepng_compress_settings_initP23LodePNGCompressSettings(ptr noundef %0) #3 {
  %2 = alloca ptr, align 8
  store ptr %0, ptr %2, align 8, !tbaa !73
  %3 = load ptr, ptr %2, align 8, !tbaa !73
  %4 = getelementptr inbounds nuw %struct.LodePNGCompressSettings, ptr %3, i32 0, i32 0
  store i32 2, ptr %4, align 8, !tbaa !75
  %5 = load ptr, ptr %2, align 8, !tbaa !73
  %6 = getelementptr inbounds nuw %struct.LodePNGCompressSettings, ptr %5, i32 0, i32 1
  store i32 1, ptr %6, align 4, !tbaa !82
  %7 = load ptr, ptr %2, align 8, !tbaa !73
  %8 = getelementptr inbounds nuw %struct.LodePNGCompressSettings, ptr %7, i32 0, i32 2
  store i32 2048, ptr %8, align 8, !tbaa !77
  %9 = load ptr, ptr %2, align 8, !tbaa !73
  %10 = getelementptr inbounds nuw %struct.LodePNGCompressSettings, ptr %9, i32 0, i32 3
  store i32 3, ptr %10, align 4, !tbaa !83
  %11 = load ptr, ptr %2, align 8, !tbaa !73
  %12 = getelementptr inbounds nuw %struct.LodePNGCompressSettings, ptr %11, i32 0, i32 4
  store i32 128, ptr %12, align 8, !tbaa !84
  %13 = load ptr, ptr %2, align 8, !tbaa !73
  %14 = getelementptr inbounds nuw %struct.LodePNGCompressSettings, ptr %13, i32 0, i32 5
  store i32 1, ptr %14, align 4, !tbaa !85
  %15 = load ptr, ptr %2, align 8, !tbaa !73
  %16 = getelementptr inbounds nuw %struct.LodePNGCompressSettings, ptr %15, i32 0, i32 6
  store ptr null, ptr %16, align 8, !tbaa !86
  %17 = load ptr, ptr %2, align 8, !tbaa !73
  %18 = getelementptr inbounds nuw %struct.LodePNGCompressSettings, ptr %17, i32 0, i32 7
  store ptr null, ptr %18, align 8, !tbaa !81
  %19 = load ptr, ptr %2, align 8, !tbaa !73
  %20 = getelementptr inbounds nuw %struct.LodePNGCompressSettings, ptr %19, i32 0, i32 8
  store ptr null, ptr %20, align 8, !tbaa !87
  ret void
}

; Function Attrs: mustprogress nounwind uwtable
define void @_Z29lodepng_encoder_settings_initP22LodePNGEncoderSettings(ptr noundef %0) #3 {
  %2 = alloca ptr, align 8
  store ptr %0, ptr %2, align 8, !tbaa !298
  %3 = load ptr, ptr %2, align 8, !tbaa !298
  %4 = getelementptr inbounds nuw %struct.LodePNGEncoderSettings, ptr %3, i32 0, i32 0
  call void @_Z30lodepng_compress_settings_initP23LodePNGCompressSettings(ptr noundef %4)
  %5 = load ptr, ptr %2, align 8, !tbaa !298
  %6 = getelementptr inbounds nuw %struct.LodePNGEncoderSettings, ptr %5, i32 0, i32 2
  store i32 1, ptr %6, align 4, !tbaa !300
  %7 = load ptr, ptr %2, align 8, !tbaa !298
  %8 = getelementptr inbounds nuw %struct.LodePNGEncoderSettings, ptr %7, i32 0, i32 3
  store i32 5, ptr %8, align 8, !tbaa !301
  %9 = load ptr, ptr %2, align 8, !tbaa !298
  %10 = getelementptr inbounds nuw %struct.LodePNGEncoderSettings, ptr %9, i32 0, i32 1
  store i32 1, ptr %10, align 8, !tbaa !302
  %11 = load ptr, ptr %2, align 8, !tbaa !298
  %12 = getelementptr inbounds nuw %struct.LodePNGEncoderSettings, ptr %11, i32 0, i32 5
  store i32 0, ptr %12, align 8, !tbaa !303
  %13 = load ptr, ptr %2, align 8, !tbaa !298
  %14 = getelementptr inbounds nuw %struct.LodePNGEncoderSettings, ptr %13, i32 0, i32 4
  store ptr null, ptr %14, align 8, !tbaa !304
  %15 = load ptr, ptr %2, align 8, !tbaa !298
  %16 = getelementptr inbounds nuw %struct.LodePNGEncoderSettings, ptr %15, i32 0, i32 6
  store i32 0, ptr %16, align 4, !tbaa !305
  %17 = load ptr, ptr %2, align 8, !tbaa !298
  %18 = getelementptr inbounds nuw %struct.LodePNGEncoderSettings, ptr %17, i32 0, i32 7
  store i32 1, ptr %18, align 8, !tbaa !306
  ret void
}