; Function Attrs: mustprogress nofree norecurse nosync nounwind willreturn memory(argmem: write) uwtable
define void @_Z29lodepng_encoder_settings_initP22LodePNGEncoderSettings(ptr noundef writeonly captures(none) initializes((0, 60), (64, 84)) %0) local_unnamed_addr #6 {
  store i32 2, ptr %0, align 8, !tbaa !110
  %2 = getelementptr inbounds nuw i8, ptr %0, i64 4
  store i32 1, ptr %2, align 4, !tbaa !127
  %3 = getelementptr inbounds nuw i8, ptr %0, i64 8
  store i32 2048, ptr %3, align 8, !tbaa !117
  %4 = getelementptr inbounds nuw i8, ptr %0, i64 12
  store i32 3, ptr %4, align 4, !tbaa !128
  %5 = getelementptr inbounds nuw i8, ptr %0, i64 16
  store i32 128, ptr %5, align 8, !tbaa !129
  %6 = getelementptr inbounds nuw i8, ptr %0, i64 20
  store i32 1, ptr %6, align 4, !tbaa !130
  %7 = getelementptr inbounds nuw i8, ptr %0, i64 24
  tail call void @llvm.memset.p0.i64(ptr noundef nonnull align 8 dereferenceable(24) %7, i8 0, i64 24, i1 false)
  %8 = getelementptr inbounds nuw i8, ptr %0, i64 52
  store i32 1, ptr %8, align 4, !tbaa !535
  %9 = getelementptr inbounds nuw i8, ptr %0, i64 56
  store i32 5, ptr %9, align 8, !tbaa !536
  %10 = getelementptr inbounds nuw i8, ptr %0, i64 48
  store i32 1, ptr %10, align 8, !tbaa !537
  %11 = getelementptr inbounds nuw i8, ptr %0, i64 64
  %12 = getelementptr inbounds nuw i8, ptr %0, i64 80
  tail call void @llvm.memset.p0.i64(ptr noundef nonnull align 8 dereferenceable(16) %11, i8 0, i64 16, i1 false)
  store i32 1, ptr %12, align 8, !tbaa !538
  ret void
}